target datalayout = "e-m:e-p270:32:32-p271:32:32-p272:64:64-i64:64-i128:128-f80:128-n8:16:32:64-S128"
target triple = "x86_64-pc-linux-gnu"

; Function Attrs: nounwind uwtable
define internal void @_match_masks_to_ldom(i32 noundef %0, ptr noundef %1) #0 {
  %3 = alloca i32, align 4
  %4 = alloca ptr, align 8
  %5 = alloca i32, align 4
  %6 = alloca i32, align 4
  %7 = alloca i32, align 4
  %8 = alloca i32, align 4
  %9 = alloca i32, align 4
  %10 = alloca i16, align 2
  store i32 %0, ptr %3, align 4
  store ptr %1, ptr %4, align 8
  call void @llvm.lifetime.start.p0(i64 4, ptr %5) #7
  call void @llvm.lifetime.start.p0(i64 4, ptr %6) #7
  call void @llvm.lifetime.start.p0(i64 4, ptr %7) #7
  %11 = load ptr, ptr %4, align 8
  %12 = icmp ne ptr %11, null
  br i1 %12, label %13, label %18

13:                                               ; preds = %2
  %14 = load ptr, ptr %4, align 8
  %15 = getelementptr inbounds ptr, ptr %14, i64 0
  %16 = load ptr, ptr %15, align 8
  %17 = icmp ne ptr %16, null
  br i1 %17, label %19, label %18

18:                                               ; preds = %13, %2
  store i32 1, ptr %8, align 4
  br label %82

19:                                               ; preds = %13
  %20 = load ptr, ptr %4, align 8
  %21 = getelementptr inbounds ptr, ptr %20, i64 0
  %22 = load ptr, ptr %21, align 8
  %23 = call i64 @slurm_bit_size(ptr noundef %22)
  %24 = trunc i64 %23 to i32
  store i32 %24, ptr %7, align 4
  store i32 0, ptr %5, align 4
  br label %25

25:                                               ; preds = %78, %19
  %26 = load i32, ptr %5, align 4
  %27 = load i32, ptr %3, align 4
  %28 = icmp ult i32 %26, %27
  br i1 %28, label %29, label %81

29:                                               ; preds = %25
  store i32 0, ptr %6, align 4
  br label %30

30:                                               ; preds = %74, %29
  %31 = load i32, ptr %6, align 4
  %32 = load i32, ptr %7, align 4
  %33 = icmp ult i32 %31, %32
  br i1 %33, label %34, label %77

34:                                               ; preds = %30
  %35 = load ptr, ptr %4, align 8
  %36 = load i32, ptr %5, align 4
  %37 = zext i32 %36 to i64
  %38 = getelementptr inbounds nuw ptr, ptr %35, i64 %37
  %39 = load ptr, ptr %38, align 8
  %40 = load i32, ptr %6, align 4
  %41 = zext i32 %40 to i64
  %42 = call i32 @slurm_bit_test(ptr noundef %39, i64 noundef %41)
  %43 = icmp ne i32 %42, 0
  br i1 %43, label %44, label %73

44:                                               ; preds = %34
  call void @llvm.lifetime.start.p0(i64 4, ptr %9) #7
  call void @llvm.lifetime.start.p0(i64 2, ptr %10) #7
  %45 = load i32, ptr %6, align 4
  %46 = trunc i32 %45 to i16
  %47 = call zeroext i16 @slurm_get_numa_node(i16 noundef zeroext %46)
  store i16 %47, ptr %10, align 2
  store i32 0, ptr %9, align 4
  br label %48

48:                                               ; preds = %69, %44
  %49 = load i32, ptr %9, align 4
  %50 = load i32, ptr %7, align 4
  %51 = icmp ult i32 %49, %50
  br i1 %51, label %52, label %72

52:                                               ; preds = %48
  %53 = load i32, ptr %9, align 4
  %54 = trunc i32 %53 to i16
  %55 = call zeroext i16 @slurm_get_numa_node(i16 noundef zeroext %54)
  %56 = zext i16 %55 to i32
  %57 = load i16, ptr %10, align 2
  %58 = zext i16 %57 to i32
  %59 = icmp eq i32 %56, %58
  br i1 %59, label %60, label %68

60:                                               ; preds = %52
  %61 = load ptr, ptr %4, align 8
  %62 = load i32, ptr %5, align 4
  %63 = zext i32 %62 to i64
  %64 = getelementptr inbounds nuw ptr, ptr %61, i64 %63
  %65 = load ptr, ptr %64, align 8
  %66 = load i32, ptr %9, align 4
  %67 = sext i32 %66 to i64
  call void @slurm_bit_set(ptr noundef %65, i64 noundef %67)
  br label %68

68:                                               ; preds = %60, %52
  br label %69

69:                                               ; preds = %68
  %70 = load i32, ptr %9, align 4
  %71 = add nsw i32 %70, 1
  store i32 %71, ptr %9, align 4
  br label %48, !llvm.loop !17

72:                                               ; preds = %48
  call void @llvm.lifetime.end.p0(i64 2, ptr %10) #7
  call void @llvm.lifetime.end.p0(i64 4, ptr %9) #7
  br label %73

73:                                               ; preds = %72, %34
  br label %74

74:                                               ; preds = %73
  %75 = load i32, ptr %6, align 4
  %76 = add i32 %75, 1
  store i32 %76, ptr %6, align 4
  br label %30, !llvm.loop !18

77:                                               ; preds = %30
  br label %78

78:                                               ; preds = %77
  %79 = load i32, ptr %5, align 4
  %80 = add i32 %79, 1
  store i32 %80, ptr %5, align 4
  br label %25, !llvm.loop !19

81:                                               ; preds = %25
  store i32 0, ptr %8, align 4
  br label %82

82:                                               ; preds = %81, %18
  call void @llvm.lifetime.end.p0(i64 4, ptr %7) #7
  call void @llvm.lifetime.end.p0(i64 4, ptr %6) #7
  call void @llvm.lifetime.end.p0(i64 4, ptr %5) #7
  %83 = load i32, ptr %8, align 4
  switch i32 %83, label %85 [
    i32 0, label %84
    i32 1, label %84
  ]

84:                                               ; preds = %82, %82
  ret void

85:                                               ; preds = %82
  unreachable
}