; Function Attrs: nounwind uwtable
define internal fastcc void @_match_masks_to_ldom(i32 noundef range(i32 0, 65536) %0, ptr noundef readonly captures(address_is_null) %1) unnamed_addr #0 {
  %.not = icmp eq ptr %1, null
  br i1 %.not, label %.loopexit27, label %3

3:                                                ; preds = %2
  %4 = load ptr, ptr %1, align 8
  %.not25 = icmp eq ptr %4, null
  br i1 %.not25, label %.loopexit27, label %5

5:                                                ; preds = %3
  %6 = tail call i64 @slurm_bit_size(ptr noundef nonnull %4) #7
  %.not31 = icmp eq i32 %0, 0
  %7 = and i64 %6, 4294967295
  %.not32 = icmp eq i64 %7, 0
  %or.cond = select i1 %.not31, i1 true, i1 %.not32
  br i1 %or.cond, label %.loopexit27, label %.preheader.us.preheader

.preheader.us.preheader:                          ; preds = %5
  %wide.trip.count43 = zext nneg i32 %0 to i64
  %wide.trip.count38 = and i64 %6, 4294967295
  br label %.preheader.us

.preheader.us:                                    ; preds = %.preheader.us.preheader, %._crit_edge.us
  %indvars.iv40 = phi i64 [ 0, %.preheader.us.preheader ], [ %indvars.iv.next41, %._crit_edge.us ]
  %8 = getelementptr inbounds nuw ptr, ptr %1, i64 %indvars.iv40
  br label %9

9:                                                ; preds = %.preheader.us, %.loopexit.us
  %indvars.iv35 = phi i64 [ 0, %.preheader.us ], [ %indvars.iv.next36, %.loopexit.us ]
  %10 = load ptr, ptr %8, align 8
  %11 = tail call i32 @slurm_bit_test(ptr noundef %10, i64 noundef %indvars.iv35) #7
  %.not26.us = icmp eq i32 %11, 0
  br i1 %.not26.us, label %.loopexit.us, label %12

12:                                               ; preds = %9
  %13 = trunc i64 %indvars.iv35 to i16
  %14 = tail call zeroext i16 @slurm_get_numa_node(i16 noundef zeroext %13) #7
  br label %15

15:                                               ; preds = %21, %12
  %indvars.iv = phi i64 [ %indvars.iv.next, %21 ], [ 0, %12 ]
  %16 = trunc i64 %indvars.iv to i16
  %17 = tail call zeroext i16 @slurm_get_numa_node(i16 noundef zeroext %16) #7
  %18 = icmp eq i16 %17, %14
  br i1 %18, label %19, label %21

19:                                               ; preds = %15
  %20 = load ptr, ptr %8, align 8
  tail call void @slurm_bit_set(ptr noundef %20, i64 noundef %indvars.iv) #7
  br label %21

21:                                               ; preds = %19, %15
  %indvars.iv.next = add nuw nsw i64 %indvars.iv, 1
  %exitcond.not = icmp eq i64 %indvars.iv.next, %wide.trip.count38
  br i1 %exitcond.not, label %.loopexit.us, label %15, !llvm.loop !20

.loopexit.us:                                     ; preds = %21, %9
  %indvars.iv.next36 = add nuw nsw i64 %indvars.iv35, 1
  %exitcond39.not = icmp eq i64 %indvars.iv.next36, %wide.trip.count38
  br i1 %exitcond39.not, label %._crit_edge.us, label %9, !llvm.loop !21

._crit_edge.us:                                   ; preds = %.loopexit.us
  %indvars.iv.next41 = add nuw nsw i64 %indvars.iv40, 1
  %exitcond44.not = icmp eq i64 %indvars.iv.next41, %wide.trip.count43
  br i1 %exitcond44.not, label %.loopexit27, label %.preheader.us, !llvm.loop !22

.loopexit27:                                      ; preds = %._crit_edge.us, %5, %2, %3
  ret void
}